target datalayout = "e-m:e-p270:32:32-p271:32:32-p272:64:64-i64:64-i128:128-f80:128-n8:16:32:64-S128"
target triple = "x86_64-pc-linux-gnu"

%struct.mbedtls_pk_context = type { ptr, ptr }
%struct.mbedtls_pem_context = type { ptr, i64, ptr }

@.str.1 = private unnamed_addr constant [32 x i8] c"-----BEGIN RSA PRIVATE KEY-----\00", align 1
@.str.2 = private unnamed_addr constant [30 x i8] c"-----END RSA PRIVATE KEY-----\00", align 1
@.str.3 = private unnamed_addr constant [28 x i8] c"-----BEGIN PRIVATE KEY-----\00", align 1
@.str.4 = private unnamed_addr constant [26 x i8] c"-----END PRIVATE KEY-----\00", align 1

; Function Attrs: inlinehint mustprogress nounwind uwtable
define internal noundef ptr @_ZL14mbedtls_pk_rsa18mbedtls_pk_context(ptr %0, ptr %1) #3 {
  %3 = alloca %struct.mbedtls_pk_context, align 8
  %4 = getelementptr inbounds nuw { ptr, ptr }, ptr %3, i32 0, i32 0
  store ptr %0, ptr %4, align 8
  %5 = getelementptr inbounds nuw { ptr, ptr }, ptr %3, i32 0, i32 1
  store ptr %1, ptr %5, align 8
  %6 = getelementptr inbounds nuw %struct.mbedtls_pk_context, ptr %3, i32 0, i32 1
  %7 = load ptr, ptr %6, align 8, !tbaa !29
  ret ptr %7
}

; Function Attrs: mustprogress uwtable
define hidden i32 @mbedtls_pk_parse_key(ptr noundef %0, ptr noundef %1, i64 noundef %2, ptr noundef %3, i64 noundef %4, ptr noundef %5, ptr noundef %6) #0 {
  %8 = alloca i32, align 4
  %9 = alloca ptr, align 8
  %10 = alloca ptr, align 8
  %11 = alloca i64, align 8
  %12 = alloca ptr, align 8
  %13 = alloca i64, align 8
  %14 = alloca ptr, align 8
  %15 = alloca ptr, align 8
  %16 = alloca i32, align 4
  %17 = alloca ptr, align 8
  %18 = alloca i64, align 8
  %19 = alloca %struct.mbedtls_pem_context, align 8
  %20 = alloca i32, align 4
  %21 = alloca %struct.mbedtls_pk_context, align 8
  %22 = alloca %struct.mbedtls_pk_context, align 8
  store ptr %0, ptr %9, align 8, !tbaa !10
  store ptr %1, ptr %10, align 8, !tbaa !8
  store i64 %2, ptr %11, align 8, !tbaa !16
  store ptr %3, ptr %12, align 8, !tbaa !8
  store i64 %4, ptr %13, align 8, !tbaa !16
  store ptr %5, ptr %14, align 8, !tbaa !21
  store ptr %6, ptr %15, align 8, !tbaa !21
  call void @llvm.lifetime.start.p0(i64 4, ptr %16) #6
  store i32 -110, ptr %16, align 4, !tbaa !12
  call void @llvm.lifetime.start.p0(i64 8, ptr %17) #6
  call void @llvm.lifetime.start.p0(i64 8, ptr %18) #6
  call void @llvm.lifetime.start.p0(i64 24, ptr %19) #6
  br label %23

23:                                               ; preds = %7
  br label %24

24:                                               ; preds = %23
  br label %25

25:                                               ; preds = %24
  %26 = load i64, ptr %11, align 8, !tbaa !16
  %27 = icmp eq i64 %26, 0
  br i1 %27, label %28, label %29

28:                                               ; preds = %25
  store i32 -15616, ptr %8, align 4
  store i32 1, ptr %20, align 4
  br label %156

29:                                               ; preds = %25
  br label %30

30:                                               ; preds = %29
  br label %31

31:                                               ; preds = %30
  br label %32

32:                                               ; preds = %31
  call void @mbedtls_pem_init(ptr noundef %19)
  %33 = load ptr, ptr %10, align 8, !tbaa !8
  %34 = load i64, ptr %11, align 8, !tbaa !16
  %35 = sub i64 %34, 1
  %36 = getelementptr inbounds nuw i8, ptr %33, i64 %35
  %37 = load i8, ptr %36, align 1, !tbaa !31
  %38 = zext i8 %37 to i32
  %39 = icmp ne i32 %38, 0
  br i1 %39, label %40, label %41

40:                                               ; preds = %32
  store i32 -4224, ptr %16, align 4, !tbaa !12
  br label %46

41:                                               ; preds = %32
  %42 = load ptr, ptr %10, align 8, !tbaa !8
  %43 = load ptr, ptr %12, align 8, !tbaa !8
  %44 = load i64, ptr %13, align 8, !tbaa !16
  %45 = call i32 @mbedtls_pem_read_buffer(ptr noundef %19, ptr noundef @.str.1, ptr noundef @.str.2, ptr noundef %42, ptr noundef %43, i64 noundef %44, ptr noundef %18)
  store i32 %45, ptr %16, align 4, !tbaa !12
  br label %46

46:                                               ; preds = %41, %40
  %47 = load i32, ptr %16, align 4, !tbaa !12
  %48 = icmp eq i32 %47, 0
  br i1 %48, label %49, label %72

49:                                               ; preds = %46
  %50 = call ptr @mbedtls_pk_info_from_type(i32 noundef 1)
  store ptr %50, ptr %17, align 8, !tbaa !18
  %51 = load ptr, ptr %9, align 8, !tbaa !10
  %52 = load ptr, ptr %17, align 8, !tbaa !18
  %53 = call i32 @mbedtls_pk_setup(ptr noundef %51, ptr noundef %52)
  store i32 %53, ptr %16, align 4, !tbaa !12
  %54 = icmp ne i32 %53, 0
  br i1 %54, label %68, label %55

55:                                               ; preds = %49
  %56 = load ptr, ptr %9, align 8, !tbaa !10
  call void @llvm.memcpy.p0.p0.i64(ptr align 8 %21, ptr align 8 %56, i64 16, i1 false), !tbaa.struct !20
  %57 = getelementptr inbounds nuw { ptr, ptr }, ptr %21, i32 0, i32 0
  %58 = load ptr, ptr %57, align 8
  %59 = getelementptr inbounds nuw { ptr, ptr }, ptr %21, i32 0, i32 1
  %60 = load ptr, ptr %59, align 8
  %61 = call noundef ptr @_ZL14mbedtls_pk_rsa18mbedtls_pk_context(ptr %58, ptr %60)
  %62 = getelementptr inbounds nuw %struct.mbedtls_pem_context, ptr %19, i32 0, i32 0
  %63 = load ptr, ptr %62, align 8, !tbaa !32
  %64 = getelementptr inbounds nuw %struct.mbedtls_pem_context, ptr %19, i32 0, i32 1
  %65 = load i64, ptr %64, align 8, !tbaa !34
  %66 = call noundef i32 @_ZL22pk_parse_key_pkcs1_derP19mbedtls_rsa_contextPKhm(ptr noundef %61, ptr noundef %63, i64 noundef %65)
  store i32 %66, ptr %16, align 4, !tbaa !12
  %67 = icmp ne i32 %66, 0
  br i1 %67, label %68, label %70

68:                                               ; preds = %55, %49
  %69 = load ptr, ptr %9, align 8, !tbaa !10
  call void @mbedtls_pk_free(ptr noundef %69)
  br label %70

70:                                               ; preds = %68, %55
  call void @mbedtls_pem_free(ptr noundef %19)
  %71 = load i32, ptr %16, align 4, !tbaa !12
  store i32 %71, ptr %8, align 4
  store i32 1, ptr %20, align 4
  br label %156

72:                                               ; preds = %46
  %73 = load i32, ptr %16, align 4, !tbaa !12
  %74 = icmp eq i32 %73, -4992
  br i1 %74, label %75, label %76

75:                                               ; preds = %72
  store i32 -15232, ptr %8, align 4
  store i32 1, ptr %20, align 4
  br label %156

76:                                               ; preds = %72
  %77 = load i32, ptr %16, align 4, !tbaa !12
  %78 = icmp eq i32 %77, -4864
  br i1 %78, label %79, label %80

79:                                               ; preds = %76
  store i32 -15360, ptr %8, align 4
  store i32 1, ptr %20, align 4
  br label %156

80:                                               ; preds = %76
  %81 = load i32, ptr %16, align 4, !tbaa !12
  %82 = icmp ne i32 %81, -4224
  br i1 %82, label %83, label %85

83:                                               ; preds = %80
  %84 = load i32, ptr %16, align 4, !tbaa !12
  store i32 %84, ptr %8, align 4
  store i32 1, ptr %20, align 4
  br label %156

85:                                               ; preds = %80
  br label %86

86:                                               ; preds = %85
  br label %87

87:                                               ; preds = %86
  br label %88

88:                                               ; preds = %87
  %89 = load ptr, ptr %10, align 8, !tbaa !8
  %90 = load i64, ptr %11, align 8, !tbaa !16
  %91 = sub i64 %90, 1
  %92 = getelementptr inbounds nuw i8, ptr %89, i64 %91
  %93 = load i8, ptr %92, align 1, !tbaa !31
  %94 = zext i8 %93 to i32
  %95 = icmp ne i32 %94, 0
  br i1 %95, label %96, label %97

96:                                               ; preds = %88
  store i32 -4224, ptr %16, align 4, !tbaa !12
  br label %100

97:                                               ; preds = %88
  %98 = load ptr, ptr %10, align 8, !tbaa !8
  %99 = call i32 @mbedtls_pem_read_buffer(ptr noundef %19, ptr noundef @.str.3, ptr noundef @.str.4, ptr noundef %98, ptr noundef null, i64 noundef 0, ptr noundef %18)
  store i32 %99, ptr %16, align 4, !tbaa !12
  br label %100

100:                                              ; preds = %97, %96
  %101 = load i32, ptr %16, align 4, !tbaa !12
  %102 = icmp eq i32 %101, 0
  br i1 %102, label %103, label %117

103:                                              ; preds = %100
  %104 = load ptr, ptr %9, align 8, !tbaa !10
  %105 = getelementptr inbounds nuw %struct.mbedtls_pem_context, ptr %19, i32 0, i32 0
  %106 = load ptr, ptr %105, align 8, !tbaa !32
  %107 = getelementptr inbounds nuw %struct.mbedtls_pem_context, ptr %19, i32 0, i32 1
  %108 = load i64, ptr %107, align 8, !tbaa !34
  %109 = load ptr, ptr %14, align 8, !tbaa !21
  %110 = load ptr, ptr %15, align 8, !tbaa !21
  %111 = call noundef i32 @_ZL34pk_parse_key_pkcs8_unencrypted_derP18mbedtls_pk_contextPKhmPFiPvPhmES3_(ptr noundef %104, ptr noundef %106, i64 noundef %108, ptr noundef %109, ptr noundef %110)
  store i32 %111, ptr %16, align 4, !tbaa !12
  %112 = icmp ne i32 %111, 0
  br i1 %112, label %113, label %115

113:                                              ; preds = %103
  %114 = load ptr, ptr %9, align 8, !tbaa !10
  call void @mbedtls_pk_free(ptr noundef %114)
  br label %115

115:                                              ; preds = %113, %103
  call void @mbedtls_pem_free(ptr noundef %19)
  %116 = load i32, ptr %16, align 4, !tbaa !12
  store i32 %116, ptr %8, align 4
  store i32 1, ptr %20, align 4
  br label %156

117:                                              ; preds = %100
  %118 = load i32, ptr %16, align 4, !tbaa !12
  %119 = icmp ne i32 %118, -4224
  br i1 %119, label %120, label %122

120:                                              ; preds = %117
  %121 = load i32, ptr %16, align 4, !tbaa !12
  store i32 %121, ptr %8, align 4
  store i32 1, ptr %20, align 4
  br label %156

122:                                              ; preds = %117
  br label %123

123:                                              ; preds = %122
  %124 = load ptr, ptr %9, align 8, !tbaa !10
  %125 = load ptr, ptr %10, align 8, !tbaa !8
  %126 = load i64, ptr %11, align 8, !tbaa !16
  %127 = load ptr, ptr %14, align 8, !tbaa !21
  %128 = load ptr, ptr %15, align 8, !tbaa !21
  %129 = call noundef i32 @_ZL34pk_parse_key_pkcs8_unencrypted_derP18mbedtls_pk_contextPKhmPFiPvPhmES3_(ptr noundef %124, ptr noundef %125, i64 noundef %126, ptr noundef %127, ptr noundef %128)
  store i32 %129, ptr %16, align 4, !tbaa !12
  %130 = load i32, ptr %16, align 4, !tbaa !12
  %131 = icmp eq i32 %130, 0
  br i1 %131, label %132, label %133

132:                                              ; preds = %123
  store i32 0, ptr %8, align 4
  store i32 1, ptr %20, align 4
  br label %156

133:                                              ; preds = %123
  %134 = load ptr, ptr %9, align 8, !tbaa !10
  call void @mbedtls_pk_free(ptr noundef %134)
  %135 = load ptr, ptr %9, align 8, !tbaa !10
  call void @mbedtls_pk_init(ptr noundef %135)
  %136 = call ptr @mbedtls_pk_info_from_type(i32 noundef 1)
  store ptr %136, ptr %17, align 8, !tbaa !18
  %137 = load ptr, ptr %9, align 8, !tbaa !10
  %138 = load ptr, ptr %17, align 8, !tbaa !18
  %139 = call i32 @mbedtls_pk_setup(ptr noundef %137, ptr noundef %138)
  %140 = icmp eq i32 %139, 0
  br i1 %140, label %141, label %153

141:                                              ; preds = %133
  %142 = load ptr, ptr %9, align 8, !tbaa !10
  call void @llvm.memcpy.p0.p0.i64(ptr align 8 %22, ptr align 8 %142, i64 16, i1 false), !tbaa.struct !20
  %143 = getelementptr inbounds nuw { ptr, ptr }, ptr %22, i32 0, i32 0
  %144 = load ptr, ptr %143, align 8
  %145 = getelementptr inbounds nuw { ptr, ptr }, ptr %22, i32 0, i32 1
  %146 = load ptr, ptr %145, align 8
  %147 = call noundef ptr @_ZL14mbedtls_pk_rsa18mbedtls_pk_context(ptr %144, ptr %146)
  %148 = load ptr, ptr %10, align 8, !tbaa !8
  %149 = load i64, ptr %11, align 8, !tbaa !16
  %150 = call noundef i32 @_ZL22pk_parse_key_pkcs1_derP19mbedtls_rsa_contextPKhm(ptr noundef %147, ptr noundef %148, i64 noundef %149)
  %151 = icmp eq i32 %150, 0
  br i1 %151, label %152, label %153

152:                                              ; preds = %141
  store i32 0, ptr %8, align 4
  store i32 1, ptr %20, align 4
  br label %156

153:                                              ; preds = %141, %133
  %154 = load ptr, ptr %9, align 8, !tbaa !10
  call void @mbedtls_pk_free(ptr noundef %154)
  %155 = load ptr, ptr %9, align 8, !tbaa !10
  call void @mbedtls_pk_init(ptr noundef %155)
  store i32 -15616, ptr %8, align 4
  store i32 1, ptr %20, align 4
  br label %156

156:                                              ; preds = %153, %152, %132, %120, %115, %83, %79, %75, %70, %28
  call void @llvm.lifetime.end.p0(i64 24, ptr %19) #6
  call void @llvm.lifetime.end.p0(i64 8, ptr %18) #6
  call void @llvm.lifetime.end.p0(i64 8, ptr %17) #6
  call void @llvm.lifetime.end.p0(i64 4, ptr %16) #6
  %157 = load i32, ptr %8, align 4
  ret i32 %157
}