; Function Attrs: mustprogress uwtable
define hidden i32 @mbedtls_pk_parse_key(ptr noundef %0, ptr noundef %1, i64 noundef %2, ptr noundef %3, i64 noundef %4, ptr noundef readnone captures(none) %5, ptr noundef readnone captures(none) %6) local_unnamed_addr #0 {
  %8 = alloca i64, align 8
  %9 = alloca %struct.mbedtls_pem_context, align 8
  call void @llvm.lifetime.start.p0(i64 8, ptr nonnull %8) #4
  call void @llvm.lifetime.start.p0(i64 24, ptr nonnull %9) #4
  %10 = icmp eq i64 %2, 0
  br i1 %10, label %49, label %11

11:                                               ; preds = %7
  call void @mbedtls_pem_init(ptr noundef nonnull %9)
  %12 = getelementptr i8, ptr %1, i64 %2
  %13 = getelementptr i8, ptr %12, i64 -1
  %14 = load i8, ptr %13, align 1, !tbaa !17
  %.not = icmp eq i8 %14, 0
  br i1 %.not, label %15, label %.thread58

15:                                               ; preds = %11
  %16 = call i32 @mbedtls_pem_read_buffer(ptr noundef nonnull %9, ptr noundef nonnull @.str.1, ptr noundef nonnull @.str.2, ptr noundef nonnull %1, ptr noundef %3, i64 noundef %4, ptr noundef nonnull %8)
  switch i32 %16, label %28 [
    i32 0, label %17
    i32 -4992, label %49
    i32 -4864, label %27
    i32 -4224, label %29
  ]

17:                                               ; preds = %15
  %18 = call ptr @mbedtls_pk_info_from_type(i32 noundef 1)
  %19 = call i32 @mbedtls_pk_setup(ptr noundef %0, ptr noundef %18)
  %.not53 = icmp eq i32 %19, 0
  br i1 %.not53, label %20, label %25

20:                                               ; preds = %17
  %.sroa.22.0..sroa_idx = getelementptr inbounds nuw i8, ptr %0, i64 8
  %.sroa.22.0.copyload = load ptr, ptr %.sroa.22.0..sroa_idx, align 8, !tbaa !16
  %21 = load ptr, ptr %9, align 8, !tbaa !18
  %22 = getelementptr inbounds nuw i8, ptr %9, i64 8
  %23 = load i64, ptr %22, align 8, !tbaa !20
  %24 = call fastcc noundef i32 @_ZL22pk_parse_key_pkcs1_derP19mbedtls_rsa_contextPKhm(ptr noundef %.sroa.22.0.copyload, ptr noundef %21, i64 noundef %23)
  %.not54 = icmp eq i32 %24, 0
  br i1 %.not54, label %26, label %25

25:                                               ; preds = %20, %17
  %.1 = phi i32 [ %19, %17 ], [ %24, %20 ]
  call void @mbedtls_pk_free(ptr noundef %0)
  br label %26

26:                                               ; preds = %25, %20
  %.2 = phi i32 [ %.1, %25 ], [ 0, %20 ]
  call void @mbedtls_pem_free(ptr noundef nonnull %9)
  br label %49

27:                                               ; preds = %15
  br label %49

28:                                               ; preds = %15
  br label %49

29:                                               ; preds = %15
  %.pr = load i8, ptr %13, align 1, !tbaa !17
  %.not50 = icmp eq i8 %.pr, 0
  br i1 %.not50, label %30, label %.thread58

30:                                               ; preds = %29
  %31 = call i32 @mbedtls_pem_read_buffer(ptr noundef nonnull %9, ptr noundef nonnull @.str.3, ptr noundef nonnull @.str.4, ptr noundef nonnull %1, ptr noundef null, i64 noundef 0, ptr noundef nonnull %8)
  switch i32 %31, label %49 [
    i32 0, label %32
    i32 -4224, label %.thread58
  ]

32:                                               ; preds = %30
  %33 = load ptr, ptr %9, align 8, !tbaa !18
  %34 = getelementptr inbounds nuw i8, ptr %9, i64 8
  %35 = load i64, ptr %34, align 8, !tbaa !20
  %36 = call fastcc noundef i32 @_ZL34pk_parse_key_pkcs8_unencrypted_derP18mbedtls_pk_contextPKhmPFiPvPhmES3_(ptr noundef %0, ptr noundef %33, i64 noundef %35)
  %.not52 = icmp eq i32 %36, 0
  br i1 %.not52, label %38, label %37

37:                                               ; preds = %32
  call void @mbedtls_pk_free(ptr noundef %0)
  br label %38

38:                                               ; preds = %37, %32
  call void @mbedtls_pem_free(ptr noundef nonnull %9)
  br label %49

.thread58:                                        ; preds = %11, %29, %30
  %39 = call fastcc noundef i32 @_ZL34pk_parse_key_pkcs8_unencrypted_derP18mbedtls_pk_contextPKhmPFiPvPhmES3_(ptr noundef %0, ptr noundef nonnull %1, i64 noundef %2)
  %40 = icmp eq i32 %39, 0
  br i1 %40, label %49, label %41

41:                                               ; preds = %.thread58
  call void @mbedtls_pk_free(ptr noundef %0)
  call void @mbedtls_pk_init(ptr noundef %0)
  %42 = call ptr @mbedtls_pk_info_from_type(i32 noundef 1)
  %43 = call i32 @mbedtls_pk_setup(ptr noundef %0, ptr noundef %42)
  %44 = icmp eq i32 %43, 0
  br i1 %44, label %45, label %48

45:                                               ; preds = %41
  %.sroa.2.0..sroa_idx = getelementptr inbounds nuw i8, ptr %0, i64 8
  %.sroa.2.0.copyload = load ptr, ptr %.sroa.2.0..sroa_idx, align 8, !tbaa !16
  %46 = call fastcc noundef i32 @_ZL22pk_parse_key_pkcs1_derP19mbedtls_rsa_contextPKhm(ptr noundef %.sroa.2.0.copyload, ptr noundef nonnull %1, i64 noundef %2)
  %47 = icmp eq i32 %46, 0
  br i1 %47, label %49, label %48

48:                                               ; preds = %45, %41
  call void @mbedtls_pk_free(ptr noundef %0)
  call void @mbedtls_pk_init(ptr noundef %0)
  br label %49

49:                                               ; preds = %45, %.thread58, %30, %15, %7, %48, %38, %28, %27, %26
  %.0 = phi i32 [ %.2, %26 ], [ -15360, %27 ], [ %16, %28 ], [ %36, %38 ], [ -15616, %48 ], [ -15616, %7 ], [ -15232, %15 ], [ %31, %30 ], [ 0, %.thread58 ], [ 0, %45 ]
  call void @llvm.lifetime.end.p0(i64 24, ptr nonnull %9) #4
  call void @llvm.lifetime.end.p0(i64 8, ptr nonnull %8) #4
  ret i32 %.0
}